target datalayout = "e-m:e-p270:32:32-p271:32:32-p272:64:64-i64:64-i128:128-f80:128-n8:16:32:64-S128"
target triple = "x86_64-pc-linux-gnu"

%"class.std::__cxx11::basic_string" = type { %"struct.std::__cxx11::basic_string<char>::_Alloc_hider", i64, %union.anon }
%"struct.std::__cxx11::basic_string<char>::_Alloc_hider" = type { ptr }
%union.anon = type { i64, [8 x i8] }
%"struct.Imf_3_4::DeepTiledOutputFile::Data" = type <{ %"class.Imf_3_4::Header", i32, i8, [3 x i8], %"class.Imf_3_4::TileDescription", %"class.Imf_3_4::DeepFrameBuffer", i64, i32, i32, i32, i32, i32, i32, i32, [4 x i8], ptr, ptr, %"class.Imf_3_4::TileOffsets", i32, [4 x i8], %"class.std::vector.11", %"class.std::vector.16", i64, %"class.std::map.21", %"struct.Imf_3_4::(anonymous namespace)::TileCoord", i32, [4 x i8], ptr, i32, i32, i32, i32, i64, ptr, i8, [7 x i8] }>
%"class.Imf_3_4::Header" = type <{ %"class.std::map", i8, [7 x i8] }>
%"class.std::map" = type { %"class.std::_Rb_tree" }
%"class.std::_Rb_tree" = type { %"struct.std::_Rb_tree<Imf_3_4::Name, std::pair<const Imf_3_4::Name, Imf_3_4::Attribute *>, std::_Select1st<std::pair<const Imf_3_4::Name, Imf_3_4::Attribute *>>, std::less<Imf_3_4::Name>>::_Rb_tree_impl" }
%"struct.std::_Rb_tree<Imf_3_4::Name, std::pair<const Imf_3_4::Name, Imf_3_4::Attribute *>, std::_Select1st<std::pair<const Imf_3_4::Name, Imf_3_4::Attribute *>>, std::less<Imf_3_4::Name>>::_Rb_tree_impl" = type { [8 x i8], %"struct.std::_Rb_tree_header" }
%"struct.std::_Rb_tree_header" = type { %"struct.std::_Rb_tree_node_base", i64 }
%"struct.std::_Rb_tree_node_base" = type { i32, ptr, ptr, ptr }
%"class.Imf_3_4::TileDescription" = type { i32, i32, i32, i32 }
%"class.Imf_3_4::DeepFrameBuffer" = type { %"class.std::map.3", %"struct.Imf_3_4::Slice" }
%"class.std::map.3" = type { %"class.std::_Rb_tree.4" }
%"class.std::_Rb_tree.4" = type { %"struct.std::_Rb_tree<Imf_3_4::Name, std::pair<const Imf_3_4::Name, Imf_3_4::DeepSlice>, std::_Select1st<std::pair<const Imf_3_4::Name, Imf_3_4::DeepSlice>>, std::less<Imf_3_4::Name>>::_Rb_tree_impl" }
%"struct.std::_Rb_tree<Imf_3_4::Name, std::pair<const Imf_3_4::Name, Imf_3_4::DeepSlice>, std::_Select1st<std::pair<const Imf_3_4::Name, Imf_3_4::DeepSlice>>, std::less<Imf_3_4::Name>>::_Rb_tree_impl" = type { [8 x i8], %"struct.std::_Rb_tree_header" }
%"struct.Imf_3_4::Slice" = type <{ i32, [4 x i8], ptr, i64, i64, i32, i32, double, i8, i8, [6 x i8] }>
%"class.Imf_3_4::TileOffsets" = type { i32, i32, i32, %"class.std::vector" }
%"class.std::vector" = type { %"struct.std::_Vector_base" }
%"struct.std::_Vector_base" = type { %"struct.std::_Vector_base<std::vector<std::vector<unsigned long>>, std::allocator<std::vector<std::vector<unsigned long>>>>::_Vector_impl" }
%"struct.std::_Vector_base<std::vector<std::vector<unsigned long>>, std::allocator<std::vector<std::vector<unsigned long>>>>::_Vector_impl" = type { %"struct.std::_Vector_base<std::vector<std::vector<unsigned long>>, std::allocator<std::vector<std::vector<unsigned long>>>>::_Vector_impl_data" }
%"struct.std::_Vector_base<std::vector<std::vector<unsigned long>>, std::allocator<std::vector<std::vector<unsigned long>>>>::_Vector_impl_data" = type { ptr, ptr, ptr }
%"class.std::vector.11" = type { %"struct.std::_Vector_base.12" }
%"struct.std::_Vector_base.12" = type { %"struct.std::_Vector_base<Imf_3_4::(anonymous namespace)::TOutSliceInfo *, std::allocator<Imf_3_4::(anonymous namespace)::TOutSliceInfo *>>::_Vector_impl" }
%"struct.std::_Vector_base<Imf_3_4::(anonymous namespace)::TOutSliceInfo *, std::allocator<Imf_3_4::(anonymous namespace)::TOutSliceInfo *>>::_Vector_impl" = type { %"struct.std::_Vector_base<Imf_3_4::(anonymous namespace)::TOutSliceInfo *, std::allocator<Imf_3_4::(anonymous namespace)::TOutSliceInfo *>>::_Vector_impl_data" }
%"struct.std::_Vector_base<Imf_3_4::(anonymous namespace)::TOutSliceInfo *, std::allocator<Imf_3_4::(anonymous namespace)::TOutSliceInfo *>>::_Vector_impl_data" = type { ptr, ptr, ptr }
%"class.std::vector.16" = type { %"struct.std::_Vector_base.17" }
%"struct.std::_Vector_base.17" = type { %"struct.std::_Vector_base<Imf_3_4::(anonymous namespace)::TileBuffer *, std::allocator<Imf_3_4::(anonymous namespace)::TileBuffer *>>::_Vector_impl" }
%"struct.std::_Vector_base<Imf_3_4::(anonymous namespace)::TileBuffer *, std::allocator<Imf_3_4::(anonymous namespace)::TileBuffer *>>::_Vector_impl" = type { %"struct.std::_Vector_base<Imf_3_4::(anonymous namespace)::TileBuffer *, std::allocator<Imf_3_4::(anonymous namespace)::TileBuffer *>>::_Vector_impl_data" }
%"struct.std::_Vector_base<Imf_3_4::(anonymous namespace)::TileBuffer *, std::allocator<Imf_3_4::(anonymous namespace)::TileBuffer *>>::_Vector_impl_data" = type { ptr, ptr, ptr }
%"class.std::map.21" = type { %"class.std::_Rb_tree.22" }
%"class.std::_Rb_tree.22" = type { %"struct.std::_Rb_tree<Imf_3_4::(anonymous namespace)::TileCoord, std::pair<const Imf_3_4::(anonymous namespace)::TileCoord, Imf_3_4::(anonymous namespace)::BufferedTile *>, std::_Select1st<std::pair<const Imf_3_4::(anonymous namespace)::TileCoord, Imf_3_4::(anonymous namespace)::BufferedTile *>>, std::less<Imf_3_4::(anonymous namespace)::TileCoord>>::_Rb_tree_impl" }
%"struct.std::_Rb_tree<Imf_3_4::(anonymous namespace)::TileCoord, std::pair<const Imf_3_4::(anonymous namespace)::TileCoord, Imf_3_4::(anonymous namespace)::BufferedTile *>, std::_Select1st<std::pair<const Imf_3_4::(anonymous namespace)::TileCoord, Imf_3_4::(anonymous namespace)::BufferedTile *>>, std::less<Imf_3_4::(anonymous namespace)::TileCoord>>::_Rb_tree_impl" = type { [8 x i8], %"struct.std::_Rb_tree_header" }
%"struct.Imf_3_4::(anonymous namespace)::TileCoord" = type { i32, i32, i32, i32 }
%"class.std::__cxx11::basic_stringstream" = type { %"class.std::basic_iostream.base", %"class.std::__cxx11::basic_stringbuf", %"class.std::basic_ios" }
%"class.std::basic_iostream.base" = type { %"class.std::basic_istream.base", %"class.std::basic_ostream.base" }
%"class.std::basic_istream.base" = type { ptr, i64 }
%"class.std::basic_ostream.base" = type { ptr }
%"class.std::__cxx11::basic_stringbuf" = type { %"class.std::basic_streambuf", i32, %"class.std::__cxx11::basic_string" }
%"class.std::basic_streambuf" = type { ptr, ptr, ptr, ptr, ptr, ptr, ptr, %"class.std::locale" }
%"class.std::locale" = type { ptr }
%"class.std::basic_ios" = type { %"class.std::ios_base", ptr, i8, i8, ptr, ptr, ptr, ptr }
%"class.std::ios_base" = type { ptr, i64, i64, i32, i32, i32, ptr, %"struct.std::ios_base::_Words", [8 x %"struct.std::ios_base::_Words"], i32, ptr, %"class.std::locale" }
%"struct.std::ios_base::_Words" = type { ptr, i64 }
%"class.Imf_3_4::DeepTiledOutputFile" = type { %"class.Imf_3_4::GenericOutputFile", ptr }
%"class.Imf_3_4::GenericOutputFile" = type { ptr }
%"struct.Imf_3_4::OutputStreamMutex" = type { %"class.std::mutex", ptr, i64 }
%"class.std::mutex" = type { %"class.std::__mutex_base" }
%"class.std::__mutex_base" = type { %union.pthread_mutex_t }
%union.pthread_mutex_t = type { %struct.__pthread_mutex_s }
%struct.__pthread_mutex_s = type { i32, i32, i32, i32, i32, i16, i16, %struct.__pthread_internal_list }
%struct.__pthread_internal_list = type { ptr, ptr }
%"class.Imath_3_2::Box" = type { %"class.Imath_3_2::Vec2.27", %"class.Imath_3_2::Vec2.27" }
%"class.Imath_3_2::Vec2.27" = type { i32, i32 }

@_ZTIN7Iex_3_47BaseExcE = external constant ptr
@.str.9 = private unnamed_addr constant [4 x i8] c"\22. \00", align 1
@.str.40 = private unnamed_addr constant [51 x i8] c"Error calling dataWindowForLevel() on image file \22\00", align 1

; Function Attrs: mustprogress uwtable
define noundef ptr @_ZNK7Imf_3_419DeepTiledOutputFile8fileNameEv(ptr noundef nonnull align 8 dereferenceable(16) %0) #6 align 2 {
  %2 = alloca ptr, align 8
  store ptr %0, ptr %2, align 8, !tbaa !142
  %3 = load ptr, ptr %2, align 8
  %4 = getelementptr inbounds nuw %"class.Imf_3_4::DeepTiledOutputFile", ptr %3, i32 0, i32 1
  %5 = load ptr, ptr %4, align 8, !tbaa !146
  %6 = getelementptr inbounds nuw %"struct.Imf_3_4::DeepTiledOutputFile::Data", ptr %5, i32 0, i32 33
  %7 = load ptr, ptr %6, align 8, !tbaa !70
  %8 = getelementptr inbounds nuw %"struct.Imf_3_4::OutputStreamMutex", ptr %7, i32 0, i32 1
  %9 = load ptr, ptr %8, align 8, !tbaa !149
  %10 = call noundef ptr @_ZNK7Imf_3_47OStream8fileNameEv(ptr noundef nonnull align 8 dereferenceable(40) %9)
  ret ptr %10
}

; Function Attrs: mustprogress uwtable
define void @_ZNK7Imf_3_419DeepTiledOutputFile18dataWindowForLevelEii(ptr dead_on_unwind noalias writable sret(%"class.Imath_3_2::Box") align 4 %0, ptr noundef nonnull align 8 dereferenceable(16) %1, i32 noundef %2, i32 noundef %3) #6 align 2 personality ptr @__gxx_personality_v0 {
  %5 = alloca ptr, align 8
  %6 = alloca ptr, align 8
  %7 = alloca i32, align 4
  %8 = alloca i32, align 4
  %9 = alloca ptr, align 8
  %10 = alloca i32, align 4
  %11 = alloca ptr, align 8
  %12 = alloca %"class.std::__cxx11::basic_stringstream", align 8
  store ptr %0, ptr %5, align 8
  store ptr %1, ptr %6, align 8, !tbaa !142
  store i32 %2, ptr %7, align 4, !tbaa !14
  store i32 %3, ptr %8, align 4, !tbaa !14
  %13 = load ptr, ptr %6, align 8
  %14 = getelementptr inbounds nuw %"class.Imf_3_4::DeepTiledOutputFile", ptr %13, i32 0, i32 1
  %15 = load ptr, ptr %14, align 8, !tbaa !146
  %16 = getelementptr inbounds nuw %"struct.Imf_3_4::DeepTiledOutputFile::Data", ptr %15, i32 0, i32 4
  %17 = getelementptr inbounds nuw %"class.Imf_3_4::DeepTiledOutputFile", ptr %13, i32 0, i32 1
  %18 = load ptr, ptr %17, align 8, !tbaa !146
  %19 = getelementptr inbounds nuw %"struct.Imf_3_4::DeepTiledOutputFile::Data", ptr %18, i32 0, i32 8
  %20 = load i32, ptr %19, align 4, !tbaa !168
  %21 = getelementptr inbounds nuw %"class.Imf_3_4::DeepTiledOutputFile", ptr %13, i32 0, i32 1
  %22 = load ptr, ptr %21, align 8, !tbaa !146
  %23 = getelementptr inbounds nuw %"struct.Imf_3_4::DeepTiledOutputFile::Data", ptr %22, i32 0, i32 9
  %24 = load i32, ptr %23, align 8, !tbaa !170
  %25 = getelementptr inbounds nuw %"class.Imf_3_4::DeepTiledOutputFile", ptr %13, i32 0, i32 1
  %26 = load ptr, ptr %25, align 8, !tbaa !146
  %27 = getelementptr inbounds nuw %"struct.Imf_3_4::DeepTiledOutputFile::Data", ptr %26, i32 0, i32 10
  %28 = load i32, ptr %27, align 4, !tbaa !172
  %29 = getelementptr inbounds nuw %"class.Imf_3_4::DeepTiledOutputFile", ptr %13, i32 0, i32 1
  %30 = load ptr, ptr %29, align 8, !tbaa !146
  %31 = getelementptr inbounds nuw %"struct.Imf_3_4::DeepTiledOutputFile::Data", ptr %30, i32 0, i32 11
  %32 = load i32, ptr %31, align 8, !tbaa !174
  %33 = load i32, ptr %7, align 4, !tbaa !14
  %34 = load i32, ptr %8, align 4, !tbaa !14
  invoke void @_ZN7Imf_3_418dataWindowForLevelERKNS_15TileDescriptionEiiiiii(ptr dead_on_unwind writable sret(%"class.Imath_3_2::Box") align 4 %0, ptr noundef nonnull align 4 dereferenceable(16) %16, i32 noundef %20, i32 noundef %24, i32 noundef %28, i32 noundef %32, i32 noundef %33, i32 noundef %34)
          to label %35 unwind label %36

35:                                               ; preds = %4
  ret void

36:                                               ; preds = %4
  %37 = landingpad { ptr, i32 }
          catch ptr @_ZTIN7Iex_3_47BaseExcE
  %38 = extractvalue { ptr, i32 } %37, 0
  store ptr %38, ptr %9, align 8
  %39 = extractvalue { ptr, i32 } %37, 1
  store i32 %39, ptr %10, align 4
  br label %40

40:                                               ; preds = %36
  %41 = load i32, ptr %10, align 4
  %42 = call i32 @llvm.eh.typeid.for.p0(ptr @_ZTIN7Iex_3_47BaseExcE) #3
  %43 = icmp eq i32 %41, %42
  br i1 %43, label %44, label %86

44:                                               ; preds = %40
  call void @llvm.lifetime.start.p0(i64 8, ptr %11) #3
  %45 = load ptr, ptr %9, align 8
  %46 = call ptr @__cxa_begin_catch(ptr %45) #3
  store ptr %46, ptr %11, align 8
  br label %47

47:                                               ; preds = %44
  call void @llvm.lifetime.start.p0(i64 392, ptr %12) #3
  invoke void @_ZNSt7__cxx1118basic_stringstreamIcSt11char_traitsIcESaIcEEC1Ev(ptr noundef nonnull align 8 dereferenceable(128) %12)
          to label %48 unwind label %70

48:                                               ; preds = %47
  %49 = getelementptr inbounds i8, ptr %12, i64 16
  %50 = invoke noundef nonnull align 8 dereferenceable(8) ptr @_ZStlsISt11char_traitsIcEERSt13basic_ostreamIcT_ES5_PKc(ptr noundef nonnull align 8 dereferenceable(8) %49, ptr noundef @.str.40)
          to label %51 unwind label %74

51:                                               ; preds = %48
  %52 = invoke noundef ptr @_ZNK7Imf_3_419DeepTiledOutputFile8fileNameEv(ptr noundef nonnull align 8 dereferenceable(16) %13)
          to label %53 unwind label %74

53:                                               ; preds = %51
  %54 = invoke noundef nonnull align 8 dereferenceable(8) ptr @_ZStlsISt11char_traitsIcEERSt13basic_ostreamIcT_ES5_PKc(ptr noundef nonnull align 8 dereferenceable(8) %50, ptr noundef %52)
          to label %55 unwind label %74

55:                                               ; preds = %53
  %56 = invoke noundef nonnull align 8 dereferenceable(8) ptr @_ZStlsISt11char_traitsIcEERSt13basic_ostreamIcT_ES5_PKc(ptr noundef nonnull align 8 dereferenceable(8) %54, ptr noundef @.str.9)
          to label %57 unwind label %74

57:                                               ; preds = %55
  %58 = load ptr, ptr %11, align 8, !tbaa !157
  %59 = load ptr, ptr %58, align 8, !tbaa !136
  %60 = getelementptr inbounds ptr, ptr %59, i64 2
  %61 = load ptr, ptr %60, align 8
  %62 = call noundef ptr %61(ptr noundef nonnull align 8 dereferenceable(72) %58) #3
  %63 = invoke noundef nonnull align 8 dereferenceable(8) ptr @_ZStlsISt11char_traitsIcEERSt13basic_ostreamIcT_ES5_PKc(ptr noundef nonnull align 8 dereferenceable(8) %56, ptr noundef %62)
          to label %64 unwind label %74

64:                                               ; preds = %57
  %65 = load ptr, ptr %11, align 8, !tbaa !157
  %66 = invoke noundef nonnull align 8 dereferenceable(72) ptr @_ZN7Iex_3_47BaseExc6assignERNSt7__cxx1118basic_stringstreamIcSt11char_traitsIcESaIcEEE(ptr noundef nonnull align 8 dereferenceable(72) %65, ptr noundef nonnull align 8 dereferenceable(128) %12)
          to label %67 unwind label %74

67:                                               ; preds = %64
  call void @_ZNSt7__cxx1118basic_stringstreamIcSt11char_traitsIcESaIcEED1Ev(ptr noundef nonnull align 8 dereferenceable(128) %12) #3
  call void @llvm.lifetime.end.p0(i64 392, ptr %12) #3
  br label %68

68:                                               ; preds = %67
  br label %69

69:                                               ; preds = %68
  invoke void @__cxa_rethrow() #20
          to label %94 unwind label %79

70:                                               ; preds = %47
  %71 = landingpad { ptr, i32 }
          cleanup
  %72 = extractvalue { ptr, i32 } %71, 0
  store ptr %72, ptr %9, align 8
  %73 = extractvalue { ptr, i32 } %71, 1
  store i32 %73, ptr %10, align 4
  br label %78

74:                                               ; preds = %64, %57, %55, %53, %51, %48
  %75 = landingpad { ptr, i32 }
          cleanup
  %76 = extractvalue { ptr, i32 } %75, 0
  store ptr %76, ptr %9, align 8
  %77 = extractvalue { ptr, i32 } %75, 1
  store i32 %77, ptr %10, align 4
  call void @_ZNSt7__cxx1118basic_stringstreamIcSt11char_traitsIcESaIcEED1Ev(ptr noundef nonnull align 8 dereferenceable(128) %12) #3
  br label %78

78:                                               ; preds = %74, %70
  call void @llvm.lifetime.end.p0(i64 392, ptr %12) #3
  br label %83

79:                                               ; preds = %69
  %80 = landingpad { ptr, i32 }
          cleanup
  %81 = extractvalue { ptr, i32 } %80, 0
  store ptr %81, ptr %9, align 8
  %82 = extractvalue { ptr, i32 } %80, 1
  store i32 %82, ptr %10, align 4
  br label %83

83:                                               ; preds = %79, %78
  invoke void @__cxa_end_catch()
          to label %84 unwind label %91

84:                                               ; preds = %83
  call void @llvm.lifetime.end.p0(i64 8, ptr %11) #3
  br label %86

85:                                               ; No predecessors!
  unreachable

86:                                               ; preds = %84, %40
  %87 = load ptr, ptr %9, align 8
  %88 = load i32, ptr %10, align 4
  %89 = insertvalue { ptr, i32 } poison, ptr %87, 0
  %90 = insertvalue { ptr, i32 } %89, i32 %88, 1
  resume { ptr, i32 } %90

91:                                               ; preds = %83
  %92 = landingpad { ptr, i32 }
          catch ptr null
  %93 = extractvalue { ptr, i32 } %92, 0
  call void @__clang_call_terminate(ptr %93) #21
  unreachable

94:                                               ; preds = %69
  unreachable
}