; Function Attrs: mustprogress uwtable
define void @_ZNK7Imf_3_419DeepTiledOutputFile18dataWindowForLevelEii(ptr dead_on_unwind noalias writable sret(%"class.Imath_3_2::Box") align 4 %0, ptr noundef nonnull readonly align 8 captures(none) dereferenceable(16) %1, i32 noundef %2, i32 noundef %3) local_unnamed_addr #5 align 2 personality ptr @__gxx_personality_v0 {
  %5 = alloca %"class.std::__cxx11::basic_stringstream", align 8
  %6 = getelementptr inbounds nuw i8, ptr %1, i64 8
  %7 = load ptr, ptr %6, align 8, !tbaa !126
  %8 = getelementptr inbounds nuw i8, ptr %7, i64 64
  %9 = getelementptr inbounds nuw i8, ptr %7, i64 196
  %10 = load i32, ptr %9, align 4, !tbaa !148
  %11 = getelementptr inbounds nuw i8, ptr %7, i64 200
  %12 = load i32, ptr %11, align 8, !tbaa !150
  %13 = getelementptr inbounds nuw i8, ptr %7, i64 204
  %14 = load i32, ptr %13, align 4, !tbaa !152
  %15 = getelementptr inbounds nuw i8, ptr %7, i64 208
  %16 = load i32, ptr %15, align 8, !tbaa !154
  invoke void @_ZN7Imf_3_418dataWindowForLevelERKNS_15TileDescriptionEiiiiii(ptr dead_on_unwind writable sret(%"class.Imath_3_2::Box") align 4 %0, ptr noundef nonnull align 4 dereferenceable(16) %8, i32 noundef %10, i32 noundef %12, i32 noundef %14, i32 noundef %16, i32 noundef %2, i32 noundef %3)
          to label %17 unwind label %18

17:                                               ; preds = %4
  ret void

18:                                               ; preds = %4
  %19 = landingpad { ptr, i32 }
          catch ptr @_ZTIN7Iex_3_47BaseExcE
  %20 = extractvalue { ptr, i32 } %19, 1
  %21 = tail call i32 @llvm.eh.typeid.for.p0(ptr nonnull @_ZTIN7Iex_3_47BaseExcE) #25
  %22 = icmp eq i32 %20, %21
  br i1 %22, label %23, label %54

23:                                               ; preds = %18
  %24 = extractvalue { ptr, i32 } %19, 0
  %25 = tail call ptr @__cxa_begin_catch(ptr %24) #25
  call void @llvm.lifetime.start.p0(i64 392, ptr nonnull %5) #25
  invoke void @_ZNSt7__cxx1118basic_stringstreamIcSt11char_traitsIcESaIcEEC1Ev(ptr noundef nonnull align 8 dereferenceable(128) %5)
          to label %26 unwind label %46

26:                                               ; preds = %23
  %27 = getelementptr inbounds nuw i8, ptr %5, i64 16
  %28 = invoke noundef nonnull align 8 dereferenceable(8) ptr @_ZSt16__ostream_insertIcSt11char_traitsIcEERSt13basic_ostreamIT_T0_ES6_PKS3_l(ptr noundef nonnull align 8 dereferenceable(8) %27, ptr noundef nonnull @.str.40, i64 noundef 50)
          to label %_ZStlsISt11char_traitsIcEERSt13basic_ostreamIcT_ES5_PKc.exit unwind label %48

_ZStlsISt11char_traitsIcEERSt13basic_ostreamIcT_ES5_PKc.exit: ; preds = %26
  %29 = load ptr, ptr %6, align 8, !tbaa !126
  %30 = getelementptr inbounds nuw i8, ptr %29, i64 448
  %31 = load ptr, ptr %30, align 8, !tbaa !72
  %32 = getelementptr inbounds nuw i8, ptr %31, i64 40
  %33 = load ptr, ptr %32, align 8, !tbaa !130
  %34 = invoke noundef ptr @_ZNK7Imf_3_47OStream8fileNameEv(ptr noundef nonnull align 8 dereferenceable(40) %33)
          to label %_ZNK7Imf_3_419DeepTiledOutputFile8fileNameEv.exit unwind label %48

_ZNK7Imf_3_419DeepTiledOutputFile8fileNameEv.exit: ; preds = %_ZStlsISt11char_traitsIcEERSt13basic_ostreamIcT_ES5_PKc.exit
  %35 = invoke noundef nonnull align 8 dereferenceable(8) ptr @_ZStlsISt11char_traitsIcEERSt13basic_ostreamIcT_ES5_PKc(ptr noundef nonnull align 8 dereferenceable(8) %27, ptr noundef %34)
          to label %36 unwind label %48

36:                                               ; preds = %_ZNK7Imf_3_419DeepTiledOutputFile8fileNameEv.exit
  %37 = invoke noundef nonnull align 8 dereferenceable(8) ptr @_ZSt16__ostream_insertIcSt11char_traitsIcEERSt13basic_ostreamIT_T0_ES6_PKS3_l(ptr noundef nonnull align 8 dereferenceable(8) %35, ptr noundef nonnull @.str.9, i64 noundef 3)
          to label %_ZStlsISt11char_traitsIcEERSt13basic_ostreamIcT_ES5_PKc.exit15 unwind label %48

_ZStlsISt11char_traitsIcEERSt13basic_ostreamIcT_ES5_PKc.exit15: ; preds = %36
  %38 = load ptr, ptr %25, align 8, !tbaa !112
  %39 = getelementptr inbounds nuw i8, ptr %38, i64 16
  %40 = load ptr, ptr %39, align 8
  %41 = call noundef ptr %40(ptr noundef nonnull align 8 dereferenceable(72) %25) #25
  %42 = invoke noundef nonnull align 8 dereferenceable(8) ptr @_ZStlsISt11char_traitsIcEERSt13basic_ostreamIcT_ES5_PKc(ptr noundef nonnull align 8 dereferenceable(8) %35, ptr noundef %41)
          to label %43 unwind label %48

43:                                               ; preds = %_ZStlsISt11char_traitsIcEERSt13basic_ostreamIcT_ES5_PKc.exit15
  %44 = invoke noundef nonnull align 8 dereferenceable(72) ptr @_ZN7Iex_3_47BaseExc6assignERNSt7__cxx1118basic_stringstreamIcSt11char_traitsIcESaIcEEE(ptr noundef nonnull align 8 dereferenceable(72) %25, ptr noundef nonnull align 8 dereferenceable(128) %5)
          to label %45 unwind label %48

45:                                               ; preds = %43
  call void @_ZNSt7__cxx1118basic_stringstreamIcSt11char_traitsIcESaIcEED1Ev(ptr noundef nonnull align 8 dereferenceable(128) %5) #25
  call void @llvm.lifetime.end.p0(i64 392, ptr nonnull %5) #25
  invoke void @__cxa_rethrow() #30
          to label %58 unwind label %51

46:                                               ; preds = %23
  %47 = landingpad { ptr, i32 }
          cleanup
  br label %50

48:                                               ; preds = %36, %_ZStlsISt11char_traitsIcEERSt13basic_ostreamIcT_ES5_PKc.exit, %26, %43, %_ZStlsISt11char_traitsIcEERSt13basic_ostreamIcT_ES5_PKc.exit15, %_ZNK7Imf_3_419DeepTiledOutputFile8fileNameEv.exit
  %49 = landingpad { ptr, i32 }
          cleanup
  call void @_ZNSt7__cxx1118basic_stringstreamIcSt11char_traitsIcESaIcEED1Ev(ptr noundef nonnull align 8 dereferenceable(128) %5) #25
  br label %50

50:                                               ; preds = %48, %46
  %.pn = phi { ptr, i32 } [ %49, %48 ], [ %47, %46 ]
  call void @llvm.lifetime.end.p0(i64 392, ptr nonnull %5) #25
  br label %53

51:                                               ; preds = %45
  %52 = landingpad { ptr, i32 }
          cleanup
  br label %53

53:                                               ; preds = %51, %50
  %.pn13 = phi { ptr, i32 } [ %52, %51 ], [ %.pn, %50 ]
  invoke void @__cxa_end_catch()
          to label %54 unwind label %55

54:                                               ; preds = %53, %18
  %.merged = phi { ptr, i32 } [ %19, %18 ], [ %.pn13, %53 ]
  resume { ptr, i32 } %.merged

55:                                               ; preds = %53
  %56 = landingpad { ptr, i32 }
          catch ptr null
  %57 = extractvalue { ptr, i32 } %56, 0
  call void @__clang_call_terminate(ptr %57) #28
  unreachable

58:                                               ; preds = %45
  unreachable
}